; Function Attrs: nounwind uwtable
define noundef ptr @Ssc_ManFindPivotSat(ptr noundef readonly captures(none) %0) local_unnamed_addr #0 {
  %2 = getelementptr inbounds nuw i8, ptr %0, i64 32
  %3 = load ptr, ptr %2, align 8, !tbaa !56
  %4 = load ptr, ptr %0, align 8, !tbaa !69
  %5 = getelementptr inbounds nuw i8, ptr %4, i64 4
  %6 = load i32, ptr %5, align 4, !tbaa !70
  %7 = sext i32 %6 to i64
  %8 = tail call i32 @sat_solver_solve(ptr noundef %3, ptr noundef null, ptr noundef null, i64 noundef %7, i64 noundef 0, i64 noundef 0, i64 noundef 0) #8
  switch i32 %8, label %10 [
    i32 -1, label %24
    i32 0, label %9
  ]

9:                                                ; preds = %1
  br label %24

10:                                               ; preds = %1
  %11 = getelementptr inbounds nuw i8, ptr %0, i64 24
  %12 = load ptr, ptr %11, align 8, !tbaa !3
  %13 = getelementptr i8, ptr %12, i64 64
  %.val = load ptr, ptr %13, align 8, !tbaa !48
  %14 = getelementptr i8, ptr %.val, i64 4
  %.val.val = load i32, ptr %14, align 4, !tbaa !40
  %15 = tail call noalias dereferenceable_or_null(16) ptr @malloc(i64 noundef 16) #9
  %16 = add i32 %.val.val, -1
  %or.cond.i = icmp ult i32 %16, 15
  %spec.store.select.i = select i1 %or.cond.i, i32 16, i32 %.val.val
  %17 = getelementptr inbounds nuw i8, ptr %15, i64 4
  store i32 0, ptr %17, align 4, !tbaa !40
  store i32 %spec.store.select.i, ptr %15, align 8, !tbaa !42
  %.not.i = icmp eq i32 %spec.store.select.i, 0
  br i1 %.not.i, label %Vec_IntAlloc.exit, label %18

18:                                               ; preds = %10
  %19 = sext i32 %spec.store.select.i to i64
  %20 = shl nsw i64 %19, 2
  %21 = tail call noalias ptr @malloc(i64 noundef %20) #9
  br label %Vec_IntAlloc.exit

Vec_IntAlloc.exit:                                ; preds = %10, %18
  %22 = phi ptr [ %21, %18 ], [ null, %10 ]
  %23 = getelementptr inbounds nuw i8, ptr %15, i64 8
  store ptr %22, ptr %23, align 8, !tbaa !43
  tail call void @Ssc_ManCollectSatPattern(ptr noundef nonnull %0, ptr noundef nonnull %15)
  br label %24

24:                                               ; preds = %1, %Vec_IntAlloc.exit, %9
  %.0 = phi ptr [ null, %9 ], [ %15, %Vec_IntAlloc.exit ], [ inttoptr (i64 1 to ptr), %1 ]
  ret ptr %.0
}